target datalayout = "e-m:e-p270:32:32-p271:32:32-p272:64:64-i64:64-i128:128-f80:128-n8:16:32:64-S128"
target triple = "x86_64-pc-linux-gnu"

%"class.open3d::geometry::VoxelGrid" = type { %"class.open3d::geometry::Geometry3D", double, %"class.Eigen::Matrix", %"class.std::unordered_map" }
%"class.open3d::geometry::Geometry3D" = type { %"class.open3d::geometry::Geometry" }
%"class.open3d::geometry::Geometry" = type { ptr, i32, i32, %"class.std::__cxx11::basic_string" }
%"class.std::__cxx11::basic_string" = type { %"struct.std::__cxx11::basic_string<char>::_Alloc_hider", i64, %union.anon }
%"struct.std::__cxx11::basic_string<char>::_Alloc_hider" = type { ptr }
%union.anon = type { i64, [8 x i8] }
%"class.Eigen::Matrix" = type { %"class.Eigen::PlainObjectBase" }
%"class.Eigen::PlainObjectBase" = type { %"class.Eigen::DenseStorage" }
%"class.Eigen::DenseStorage" = type { %"struct.Eigen::internal::plain_array" }
%"struct.Eigen::internal::plain_array" = type { [3 x double] }
%"class.std::unordered_map" = type { %"class.std::_Hashtable" }
%"class.std::_Hashtable" = type { ptr, i64, %"struct.std::__detail::_Hash_node_base", i64, %"struct.std::__detail::_Prime_rehash_policy", ptr }
%"struct.std::__detail::_Hash_node_base" = type { ptr }
%"struct.std::__detail::_Prime_rehash_policy" = type { float, i64 }

@_ZN6open3d8geometry9VoxelGridC1ERKS1_ = unnamed_addr alias void (ptr, ptr), ptr @_ZN6open3d8geometry9VoxelGridC2ERKS1_

; Function Attrs: mustprogress ssp uwtable
define void @_ZNK6open3d8geometry9VoxelGridplERKS1_(ptr dead_on_unwind noalias writable sret(%"class.open3d::geometry::VoxelGrid") align 8 %0, ptr noundef nonnull align 8 dereferenceable(136) %1, ptr noundef nonnull align 8 dereferenceable(136) %2) #1 align 2 personality ptr @__gxx_personality_v0 {
  %4 = alloca ptr, align 8
  %5 = alloca ptr, align 8
  %6 = alloca ptr, align 8
  %7 = alloca %"class.open3d::geometry::VoxelGrid", align 8
  %8 = alloca ptr, align 8
  %9 = alloca i32, align 4
  store ptr %0, ptr %4, align 8
  store ptr %1, ptr %5, align 8, !tbaa !4
  store ptr %2, ptr %6, align 8, !tbaa !4
  %10 = load ptr, ptr %5, align 8
  %11 = load ptr, ptr %6, align 8, !tbaa !4
  call void @llvm.lifetime.start.p0(i64 136, ptr %7) #30
  call void @_ZN6open3d8geometry9VoxelGridC1ERKS1_(ptr noundef nonnull align 8 dereferenceable(136) %7, ptr noundef nonnull align 8 dereferenceable(136) %10)
  %12 = invoke noundef nonnull align 8 dereferenceable(136) ptr @_ZN6open3d8geometry9VoxelGridpLERKS1_(ptr noundef nonnull align 8 dereferenceable(136) %7, ptr noundef nonnull align 8 dereferenceable(136) %11)
          to label %13 unwind label %15

13:                                               ; preds = %3
  invoke void @_ZN6open3d8geometry9VoxelGridC1ERKS1_(ptr noundef nonnull align 8 dereferenceable(136) %0, ptr noundef nonnull align 8 dereferenceable(136) %12)
          to label %14 unwind label %15

14:                                               ; preds = %13
  call void @_ZN6open3d8geometry9VoxelGridD2Ev(ptr noundef nonnull align 8 dereferenceable(136) %7) #30
  call void @llvm.lifetime.end.p0(i64 136, ptr %7) #30
  ret void

15:                                               ; preds = %13, %3
  %16 = landingpad { ptr, i32 }
          cleanup
  %17 = extractvalue { ptr, i32 } %16, 0
  store ptr %17, ptr %8, align 8
  %18 = extractvalue { ptr, i32 } %16, 1
  store i32 %18, ptr %9, align 4
  call void @_ZN6open3d8geometry9VoxelGridD2Ev(ptr noundef nonnull align 8 dereferenceable(136) %7) #30
  call void @llvm.lifetime.end.p0(i64 136, ptr %7) #30
  br label %19

19:                                               ; preds = %15
  %20 = load ptr, ptr %8, align 8
  %21 = load i32, ptr %9, align 4
  %22 = insertvalue { ptr, i32 } poison, ptr %20, 0
  %23 = insertvalue { ptr, i32 } %22, i32 %21, 1
  resume { ptr, i32 } %23
}