; Function Attrs: mustprogress ssp uwtable
define void @_ZNK6open3d8geometry9VoxelGridplERKS1_(ptr dead_on_unwind noalias writable sret(%"class.open3d::geometry::VoxelGrid") align 8 %0, ptr noundef nonnull align 8 dereferenceable(136) %1, ptr noundef nonnull align 8 dereferenceable(136) %2) local_unnamed_addr #4 align 2 personality ptr @__gxx_personality_v0 {
  %4 = alloca %"class.open3d::geometry::VoxelGrid", align 8
  call void @llvm.lifetime.start.p0(i64 136, ptr nonnull %4) #36
  call void @_ZN6open3d8geometry9VoxelGridC1ERKS1_(ptr noundef nonnull align 8 dereferenceable(136) %4, ptr noundef nonnull align 8 dereferenceable(136) %1)
  %5 = invoke noundef nonnull align 8 dereferenceable(136) ptr @_ZN6open3d8geometry9VoxelGridpLERKS1_(ptr noundef nonnull align 8 dereferenceable(136) %4, ptr noundef nonnull align 8 dereferenceable(136) %2)
          to label %6 unwind label %31

6:                                                ; preds = %3
  invoke void @_ZN6open3d8geometry9VoxelGridC1ERKS1_(ptr noundef nonnull align 8 dereferenceable(136) %0, ptr noundef nonnull align 8 dereferenceable(136) %4)
          to label %7 unwind label %31

7:                                                ; preds = %6
  store ptr getelementptr inbounds nuw inrange(-16, 120) (i8, ptr @_ZTVN6open3d8geometry9VoxelGridE, i64 16), ptr %4, align 8, !tbaa !4
  %8 = getelementptr inbounds nuw i8, ptr %4, i64 80
  %9 = getelementptr inbounds nuw i8, ptr %4, i64 96
  %10 = load ptr, ptr %9, align 8, !tbaa !7
  %.not5.i.i.i.i.i = icmp eq ptr %10, null
  br i1 %.not5.i.i.i.i.i, label %_ZNSt10_HashtableIN5Eigen6MatrixIiLi3ELi1ELi0ELi3ELi1EEESt4pairIKS2_N6open3d8geometry5VoxelEESaIS8_ENSt8__detail10_Select1stESt8equal_toIS2_ENS5_7utility10hash_eigenIS2_EENSA_18_Mod_range_hashingENSA_20_Default_ranged_hashENSA_20_Prime_rehash_policyENSA_17_Hashtable_traitsILb1ELb0ELb1EEEE5clearEv.exit.i.i.i, label %.lr.ph.i.i.i.i.i

.lr.ph.i.i.i.i.i:                                 ; preds = %7, %.lr.ph.i.i.i.i.i
  %.06.i.i.i.i.i = phi ptr [ %11, %.lr.ph.i.i.i.i.i ], [ %10, %7 ]
  %11 = load ptr, ptr %.06.i.i.i.i.i, align 8, !tbaa !18
  call void @_ZdlPvm(ptr noundef nonnull %.06.i.i.i.i.i, i64 noundef 72) #35
  %.not.i.i.i.i.i = icmp eq ptr %11, null
  br i1 %.not.i.i.i.i.i, label %_ZNSt10_HashtableIN5Eigen6MatrixIiLi3ELi1ELi0ELi3ELi1EEESt4pairIKS2_N6open3d8geometry5VoxelEESaIS8_ENSt8__detail10_Select1stESt8equal_toIS2_ENS5_7utility10hash_eigenIS2_EENSA_18_Mod_range_hashingENSA_20_Default_ranged_hashENSA_20_Prime_rehash_policyENSA_17_Hashtable_traitsILb1ELb0ELb1EEEE5clearEv.exit.i.i.i, label %.lr.ph.i.i.i.i.i, !llvm.loop !19

_ZNSt10_HashtableIN5Eigen6MatrixIiLi3ELi1ELi0ELi3ELi1EEESt4pairIKS2_N6open3d8geometry5VoxelEESaIS8_ENSt8__detail10_Select1stESt8equal_toIS2_ENS5_7utility10hash_eigenIS2_EENSA_18_Mod_range_hashingENSA_20_Default_ranged_hashENSA_20_Prime_rehash_policyENSA_17_Hashtable_traitsILb1ELb0ELb1EEEE5clearEv.exit.i.i.i: ; preds = %.lr.ph.i.i.i.i.i, %7
  %12 = load ptr, ptr %8, align 8, !tbaa !21
  %13 = getelementptr inbounds nuw i8, ptr %4, i64 88
  %14 = load i64, ptr %13, align 8, !tbaa !22
  %15 = shl i64 %14, 3
  call void @llvm.memset.p0.i64(ptr align 8 %12, i8 0, i64 %15, i1 false)
  call void @llvm.memset.p0.i64(ptr noundef nonnull align 8 dereferenceable(16) %9, i8 0, i64 16, i1 false)
  %16 = load ptr, ptr %8, align 8, !tbaa !21
  %17 = getelementptr inbounds nuw i8, ptr %4, i64 128
  %18 = icmp eq ptr %16, %17
  br i1 %18, label %_ZNSt13unordered_mapIN5Eigen6MatrixIiLi3ELi1ELi0ELi3ELi1EEEN6open3d8geometry5VoxelENS3_7utility10hash_eigenIS2_EESt8equal_toIS2_ESaISt4pairIKS2_S5_EEED2Ev.exit.i, label %19

19:                                               ; preds = %_ZNSt10_HashtableIN5Eigen6MatrixIiLi3ELi1ELi0ELi3ELi1EEESt4pairIKS2_N6open3d8geometry5VoxelEESaIS8_ENSt8__detail10_Select1stESt8equal_toIS2_ENS5_7utility10hash_eigenIS2_EENSA_18_Mod_range_hashingENSA_20_Default_ranged_hashENSA_20_Prime_rehash_policyENSA_17_Hashtable_traitsILb1ELb0ELb1EEEE5clearEv.exit.i.i.i
  %20 = load i64, ptr %13, align 8, !tbaa !22
  %21 = shl i64 %20, 3
  call void @_ZdlPvm(ptr noundef %16, i64 noundef %21) #35
  br label %_ZNSt13unordered_mapIN5Eigen6MatrixIiLi3ELi1ELi0ELi3ELi1EEEN6open3d8geometry5VoxelENS3_7utility10hash_eigenIS2_EESt8equal_toIS2_ESaISt4pairIKS2_S5_EEED2Ev.exit.i

_ZNSt13unordered_mapIN5Eigen6MatrixIiLi3ELi1ELi0ELi3ELi1EEEN6open3d8geometry5VoxelENS3_7utility10hash_eigenIS2_EESt8equal_toIS2_ESaISt4pairIKS2_S5_EEED2Ev.exit.i: ; preds = %19, %_ZNSt10_HashtableIN5Eigen6MatrixIiLi3ELi1ELi0ELi3ELi1EEESt4pairIKS2_N6open3d8geometry5VoxelEESaIS8_ENSt8__detail10_Select1stESt8equal_toIS2_ENS5_7utility10hash_eigenIS2_EENSA_18_Mod_range_hashingENSA_20_Default_ranged_hashENSA_20_Prime_rehash_policyENSA_17_Hashtable_traitsILb1ELb0ELb1EEEE5clearEv.exit.i.i.i
  store ptr getelementptr inbounds nuw inrange(-16, 32) (i8, ptr @_ZTVN6open3d8geometry8GeometryE, i64 16), ptr %4, align 8, !tbaa !4
  %22 = getelementptr inbounds nuw i8, ptr %4, i64 16
  %23 = load ptr, ptr %22, align 8, !tbaa !23
  %24 = getelementptr inbounds nuw i8, ptr %4, i64 32
  %25 = icmp eq ptr %23, %24
  br i1 %25, label %_ZNKSt7__cxx1112basic_stringIcSt11char_traitsIcESaIcEE11_M_is_localEv.exit.thread.i.i.i.i, label %_ZNKSt7__cxx1112basic_stringIcSt11char_traitsIcESaIcEE11_M_is_localEv.exit.i.i.i.i

_ZNKSt7__cxx1112basic_stringIcSt11char_traitsIcESaIcEE11_M_is_localEv.exit.thread.i.i.i.i: ; preds = %_ZNSt13unordered_mapIN5Eigen6MatrixIiLi3ELi1ELi0ELi3ELi1EEEN6open3d8geometry5VoxelENS3_7utility10hash_eigenIS2_EESt8equal_toIS2_ESaISt4pairIKS2_S5_EEED2Ev.exit.i
  %26 = getelementptr inbounds nuw i8, ptr %4, i64 24
  %27 = load i64, ptr %26, align 8, !tbaa !27
  %28 = icmp ult i64 %27, 16
  call void @llvm.assume(i1 %28)
  br label %_ZN6open3d8geometry9VoxelGridD2Ev.exit

_ZNKSt7__cxx1112basic_stringIcSt11char_traitsIcESaIcEE11_M_is_localEv.exit.i.i.i.i: ; preds = %_ZNSt13unordered_mapIN5Eigen6MatrixIiLi3ELi1ELi0ELi3ELi1EEEN6open3d8geometry5VoxelENS3_7utility10hash_eigenIS2_EESt8equal_toIS2_ESaISt4pairIKS2_S5_EEED2Ev.exit.i
  %29 = load i64, ptr %24, align 8, !tbaa !28
  %30 = add i64 %29, 1
  call void @_ZdlPvm(ptr noundef %23, i64 noundef %30) #35
  br label %_ZN6open3d8geometry9VoxelGridD2Ev.exit

_ZN6open3d8geometry9VoxelGridD2Ev.exit:           ; preds = %_ZNKSt7__cxx1112basic_stringIcSt11char_traitsIcESaIcEE11_M_is_localEv.exit.thread.i.i.i.i, %_ZNKSt7__cxx1112basic_stringIcSt11char_traitsIcESaIcEE11_M_is_localEv.exit.i.i.i.i
  call void @llvm.lifetime.end.p0(i64 136, ptr nonnull %4) #36
  ret void

31:                                               ; preds = %6, %3
  %32 = landingpad { ptr, i32 }
          cleanup
  call void @_ZN6open3d8geometry9VoxelGridD2Ev(ptr noundef nonnull align 8 dereferenceable(136) %4) #36
  call void @llvm.lifetime.end.p0(i64 136, ptr nonnull %4) #36
  resume { ptr, i32 } %32
}